; Function Attrs: mustprogress uwtable
define noundef zeroext i1 @_ZN6google8protobuf2io16FileOutputStream5CloseEv(ptr noundef nonnull align 8 dereferenceable(72) %this) local_unnamed_addr #3 align 2 personality ptr @__gxx_personality_v0 {
entry:
  %ref.tmp3.i = alloca %"class.absl::lts_20230802::log_internal::LogMessageFatal", align 8
  %call = tail call noundef zeroext i1 @_ZN6google8protobuf2io26CopyingOutputStreamAdaptor5FlushEv(ptr noundef nonnull align 8 dereferenceable(48) %this)
  call void @llvm.lifetime.start.p0(i64 16, ptr nonnull %ref.tmp3.i)
  %is_closed_.i = getelementptr inbounds i8, ptr %this, i64 61
  %0 = load i8, ptr %is_closed_.i, align 1
  %1 = and i8 %0, 1
  %tobool.not.not.i = icmp eq i8 %1, 0
  br i1 %tobool.not.not.i, label %cleanup.done.i, label %cond.false.i

cond.false.i:                                     ; preds = %entry
  call void @_ZN4absl12lts_2023080212log_internal15LogMessageFatalC1EPKciSt17basic_string_viewIcSt11char_traitsIcEE(ptr noundef nonnull align 8 dereferenceable(16) %ref.tmp3.i, ptr noundef nonnull @.str, i32 noundef 177, i64 11, ptr nonnull @.str.2) #17
  call void @_ZN4absl12lts_2023080212log_internal15LogMessageFatalD1Ev(ptr noundef nonnull align 8 dereferenceable(16) %ref.tmp3.i) #18
  unreachable

cleanup.done.i:                                   ; preds = %entry
  store i8 1, ptr %is_closed_.i, align 1
  %file_.i = getelementptr inbounds i8, ptr %this, i64 56
  %2 = load i32, ptr %file_.i, align 8
  br label %do.body.i.i

do.body.i.i:                                      ; preds = %land.rhs.i.i, %cleanup.done.i
  %call.i.i = tail call i32 @close(i32 noundef %2)
  %cmp.i.i = icmp slt i32 %call.i.i, 0
  br i1 %cmp.i.i, label %land.rhs.i.i, label %_ZN6google8protobuf2io12_GLOBAL__N_114close_no_eintrEi.exit.i

land.rhs.i.i:                                     ; preds = %do.body.i.i
  %call1.i.i = tail call ptr @__errno_location() #19
  %3 = load i32, ptr %call1.i.i, align 4
  %cmp2.i.i = icmp eq i32 %3, 4
  br i1 %cmp2.i.i, label %do.body.i.i, label %if.then.i, !llvm.loop !4

_ZN6google8protobuf2io12_GLOBAL__N_114close_no_eintrEi.exit.i: ; preds = %do.body.i.i
  %cmp.not.i = icmp eq i32 %call.i.i, 0
  br i1 %cmp.not.i, label %_ZN6google8protobuf2io16FileOutputStream23CopyingFileOutputStream5CloseEv.exit, label %_ZN6google8protobuf2io12_GLOBAL__N_114close_no_eintrEi.exit.if.then_crit_edge.i

_ZN6google8protobuf2io12_GLOBAL__N_114close_no_eintrEi.exit.if.then_crit_edge.i: ; preds = %_ZN6google8protobuf2io12_GLOBAL__N_114close_no_eintrEi.exit.i
  %.pre.i = tail call ptr @__errno_location() #19
  %.pre = load i32, ptr %.pre.i, align 4
  br label %if.then.i

if.then.i:                                        ; preds = %land.rhs.i.i, %_ZN6google8protobuf2io12_GLOBAL__N_114close_no_eintrEi.exit.if.then_crit_edge.i
  %4 = phi i32 [ %.pre, %_ZN6google8protobuf2io12_GLOBAL__N_114close_no_eintrEi.exit.if.then_crit_edge.i ], [ %3, %land.rhs.i.i ]
  %errno_.i = getelementptr inbounds i8, ptr %this, i64 64
  store i32 %4, ptr %errno_.i, align 8
  br label %_ZN6google8protobuf2io16FileOutputStream23CopyingFileOutputStream5CloseEv.exit

_ZN6google8protobuf2io16FileOutputStream23CopyingFileOutputStream5CloseEv.exit: ; preds = %_ZN6google8protobuf2io12_GLOBAL__N_114close_no_eintrEi.exit.i, %if.then.i
  %cmp.not3.i = phi i1 [ true, %_ZN6google8protobuf2io12_GLOBAL__N_114close_no_eintrEi.exit.i ], [ false, %if.then.i ]
  call void @llvm.lifetime.end.p0(i64 16, ptr nonnull %ref.tmp3.i)
  %5 = and i1 %call, %cmp.not3.i
  ret i1 %5
}